target datalayout = "e-m:e-p270:32:32-p271:32:32-p272:64:64-i64:64-i128:128-f80:128-n8:16:32:64-S128"
target triple = "x86_64-pc-linux-gnu"

%struct.lv_color_t = type { i8, i8, i8 }

; Function Attrs: nounwind uwtable
define i24 @lv_palette_main(i32 noundef %0) #0 {
  %2 = alloca %struct.lv_color_t, align 1
  %3 = alloca i32, align 4
  %4 = alloca i24, align 4
  store i32 %0, ptr %3, align 4, !tbaa !3
  %5 = load i32, ptr %3, align 4, !tbaa !3
  %6 = icmp uge i32 %5, 19
  br i1 %6, label %7, label %11

7:                                                ; preds = %1
  br label %8

8:                                                ; preds = %7
  br label %9

9:                                                ; preds = %8
  %10 = call i24 @lv_color_black()
  store i24 %10, ptr %2, align 1
  br label %15

11:                                               ; preds = %1
  %12 = load i32, ptr %3, align 4, !tbaa !3
  %13 = zext i32 %12 to i64
  %14 = getelementptr inbounds nuw [19 x %struct.lv_color_t], ptr @lv_palette_main.colors, i64 0, i64 %13
  call void @llvm.memcpy.p0.p0.i64(ptr align 1 %2, ptr align 1 %14, i64 3, i1 false), !tbaa.struct !7
  br label %15

15:                                               ; preds = %11, %9
  call void @llvm.memcpy.p0.p0.i64(ptr align 4 %4, ptr align 1 %2, i64 3, i1 false)
  %16 = load i24, ptr %4, align 4
  ret i24 %16
}