; Function Attrs: nounwind uwtable
define i24 @lv_palette_main(i32 noundef %0) local_unnamed_addr #0 {
  %2 = icmp ugt i32 %0, 18
  br i1 %2, label %3, label %5

3:                                                ; preds = %1
  %4 = tail call i24 @lv_color_black() #2
  br label %8

5:                                                ; preds = %1
  %6 = zext nneg i32 %0 to i64
  %7 = getelementptr inbounds nuw [19 x %struct.lv_color_t], ptr @lv_palette_main.colors, i64 0, i64 %6
  %.sroa.0.0.copyload = load i24, ptr %7, align 1
  br label %8

8:                                                ; preds = %5, %3
  %.sroa.0.0 = phi i24 [ %4, %3 ], [ %.sroa.0.0.copyload, %5 ]
  ret i24 %.sroa.0.0
}